target datalayout = "e-m:e-p270:32:32-p271:32:32-p272:64:64-i64:64-i128:128-f80:128-n8:16:32:64-S128"
target triple = "x86_64-pc-linux-gnu"

%"class.clang::SourceLocation" = type { i32 }
%"struct.llvm::detail::PunnedPointer.1058" = type { [8 x i8] }
%"struct.clang::UnionOpaquePtr" = type { ptr }
%class.anon.1945 = type { ptr }
%"struct.clang::DeclaratorChunk::FunctionTypeInfo" = type <{ i16, [2 x i8], %"class.clang::SourceLocation", %"class.clang::SourceLocation", %"class.clang::SourceLocation", i32, i32, %"class.clang::SourceLocation", %"class.clang::SourceLocation", %"class.clang::SourceLocation", %"class.clang::SourceLocation", ptr, ptr, ptr, %union.anon.1800, %"struct.clang::UnionOpaquePtr", %"class.clang::SourceLocation", [4 x i8] }>
%union.anon.1800 = type { ptr }
%"struct.clang::DeclaratorChunk::ParamInfo" = type { ptr, %"class.clang::SourceLocation", ptr, %"class.std::unique_ptr.1465" }
%"class.std::unique_ptr.1465" = type { %"struct.std::__uniq_ptr_data.1466" }
%"struct.std::__uniq_ptr_data.1466" = type { %"class.std::__uniq_ptr_impl.1467" }
%"class.std::__uniq_ptr_impl.1467" = type { %"class.std::tuple.1468" }
%"class.std::tuple.1468" = type { %"struct.std::_Tuple_impl.1469" }
%"struct.std::_Tuple_impl.1469" = type { %"struct.std::_Head_base.1472" }
%"struct.std::_Head_base.1472" = type { ptr }
%"class.llvm::PointerIntPair.1053" = type { %"struct.llvm::detail::PunnedPointer.1054" }
%"struct.llvm::detail::PunnedPointer.1054" = type { [8 x i8] }
%"class.llvm::PointerUnion" = type { %"class.llvm::pointer_union_detail::PointerUnionMembers" }
%"class.llvm::pointer_union_detail::PointerUnionMembers" = type { %"class.llvm::pointer_union_detail::PointerUnionMembers.1055" }
%"class.llvm::pointer_union_detail::PointerUnionMembers.1055" = type { %"class.llvm::pointer_union_detail::PointerUnionMembers.1056" }
%"class.llvm::pointer_union_detail::PointerUnionMembers.1056" = type { %"class.llvm::PointerIntPair.1057" }
%"class.llvm::PointerIntPair.1057" = type { %"struct.llvm::detail::PunnedPointer.1058" }
%"class.clang::Decl" = type <{ ptr, %"class.llvm::PointerIntPair.1053", %"class.llvm::PointerUnion", %"class.clang::SourceLocation", i32, i8, [7 x i8] }>

; Function Attrs: mustprogress nounwind uwtable
define linkonce_odr hidden i32 @_ZNK5clang4Decl11getLocationEv(ptr noundef nonnull align 8 dereferenceable(33) %0) #0 comdat align 2 {
  %2 = alloca %"class.clang::SourceLocation", align 4
  %3 = alloca ptr, align 8
  store ptr %0, ptr %3, align 8
  %4 = load ptr, ptr %3, align 8
  %5 = getelementptr inbounds nuw %"class.clang::Decl", ptr %4, i32 0, i32 3
  call void @llvm.memcpy.p0.p0.i64(ptr align 4 %2, ptr align 8 %5, i64 4, i1 false)
  %6 = getelementptr inbounds nuw %"class.clang::SourceLocation", ptr %2, i32 0, i32 0
  %7 = load i32, ptr %6, align 4
  ret i32 %7
}

; Function Attrs: mustprogress nounwind uwtable
define internal i32 @"_ZZL24GetFullTypeForDeclaratorRN12_GLOBAL__N_119TypeProcessingStateEN5clang8QualTypeEPNS2_14TypeSourceInfoEENK3$_0clEj"(ptr noundef nonnull align 8 dereferenceable(8) %0, i32 noundef %1) #0 align 2 {
  %3 = alloca %"class.clang::SourceLocation", align 4
  %4 = alloca ptr, align 8
  %5 = alloca i32, align 4
  store ptr %0, ptr %4, align 8
  store i32 %1, ptr %5, align 4
  %6 = load ptr, ptr %4, align 8
  %7 = getelementptr inbounds nuw %class.anon.1945, ptr %6, i32 0, i32 0
  %8 = load ptr, ptr %7, align 8
  %9 = getelementptr inbounds nuw %"struct.clang::DeclaratorChunk::FunctionTypeInfo", ptr %8, i32 0, i32 11
  %10 = load ptr, ptr %9, align 8
  %11 = load i32, ptr %5, align 4
  %12 = zext i32 %11 to i64
  %13 = getelementptr inbounds %"struct.clang::DeclaratorChunk::ParamInfo", ptr %10, i64 %12
  %14 = getelementptr inbounds nuw %"struct.clang::DeclaratorChunk::ParamInfo", ptr %13, i32 0, i32 2
  %15 = load ptr, ptr %14, align 8
  %16 = call i32 @_ZNK5clang4Decl11getLocationEv(ptr noundef nonnull align 8 dereferenceable(33) %15)
  %17 = getelementptr inbounds nuw %"class.clang::SourceLocation", ptr %3, i32 0, i32 0
  store i32 %16, ptr %17, align 4
  %18 = getelementptr inbounds nuw %"class.clang::SourceLocation", ptr %3, i32 0, i32 0
  %19 = load i32, ptr %18, align 4
  ret i32 %19
}

; Function Attrs: mustprogress nounwind uwtable
define internal i32 @"_ZN4llvm12function_refIFN5clang14SourceLocationEjEE11callback_fnIZL24GetFullTypeForDeclaratorRN12_GLOBAL__N_119TypeProcessingStateENS1_8QualTypeEPNS1_14TypeSourceInfoEE3$_0EES2_lj"(i64 noundef %0, i32 noundef %1) #0 align 2 {
  %3 = alloca %"class.clang::SourceLocation", align 4
  %4 = alloca i64, align 8
  %5 = alloca i32, align 4
  store i64 %0, ptr %4, align 8
  store i32 %1, ptr %5, align 4
  %6 = load i64, ptr %4, align 8
  %7 = inttoptr i64 %6 to ptr
  %8 = load i32, ptr %5, align 4
  %9 = call i32 @"_ZZL24GetFullTypeForDeclaratorRN12_GLOBAL__N_119TypeProcessingStateEN5clang8QualTypeEPNS2_14TypeSourceInfoEENK3$_0clEj"(ptr noundef nonnull align 8 dereferenceable(8) %7, i32 noundef %8)
  %10 = getelementptr inbounds nuw %"class.clang::SourceLocation", ptr %3, i32 0, i32 0
  store i32 %9, ptr %10, align 4
  %11 = getelementptr inbounds nuw %"class.clang::SourceLocation", ptr %3, i32 0, i32 0
  %12 = load i32, ptr %11, align 4
  ret i32 %12
}