; Function Attrs: mustprogress nofree norecurse nosync nounwind willreturn memory(read, inaccessiblemem: none) uwtable
define internal i32 @"_ZN4llvm12function_refIFN5clang14SourceLocationEjEE11callback_fnIZL24GetFullTypeForDeclaratorRN12_GLOBAL__N_119TypeProcessingStateENS1_8QualTypeEPNS1_14TypeSourceInfoEE3$_0EES2_lj"(i64 noundef %0, i32 noundef %1) #14 align 2 {
  %3 = inttoptr i64 %0 to ptr
  %.val = load ptr, ptr %3, align 8
  %4 = getelementptr i8, ptr %.val, i64 40
  %.val.val = load ptr, ptr %4, align 8
  %5 = zext i32 %1 to i64
  %6 = getelementptr inbounds nuw %"struct.clang::DeclaratorChunk::ParamInfo", ptr %.val.val, i64 %5, i32 2
  %7 = load ptr, ptr %6, align 8
  %8 = getelementptr inbounds nuw i8, ptr %7, i64 24
  %.sroa.0.0.copyload.i.i = load i32, ptr %8, align 8
  ret i32 %.sroa.0.0.copyload.i.i
}